target datalayout = "e-m:e-p270:32:32-p271:32:32-p272:64:64-i64:64-i128:128-f80:128-n8:16:32:64-S128"
target triple = "x86_64-pc-linux-gnu"

%"class.std::__cxx11::basic_string" = type { %"struct.std::__cxx11::basic_string<char>::_Alloc_hider", i64, %union.anon }
%"struct.std::__cxx11::basic_string<char>::_Alloc_hider" = type { ptr }
%union.anon = type { i64, [8 x i8] }
%"class.std::allocator" = type { i8 }
%"class.cv::Point_" = type { i32, i32 }
%"class.cv::Size_" = type { i32, i32 }
%"class.cv::Mat" = type { i32, i32, i32, i32, ptr, ptr, ptr, ptr, ptr, ptr, %"struct.cv::MatSize", %"struct.cv::MatStep" }
%"struct.cv::MatSize" = type { ptr }
%"struct.cv::MatStep" = type { ptr, [2 x i64] }
%"class.cv::Rect_" = type { i32, i32, i32, i32 }
%struct._IplConvKernel = type { i32, i32, i32, i32, ptr, i32 }

@.str.7 = private unnamed_addr constant [130 x i8] c"generated/home/dtcxzyw/WorkSpace/Projects/compilers/llvm-opt-benchmark/bench/opencv/opencv/modules/imgproc/src/morph.dispatch.cpp\00", align 1
@.str.19 = private unnamed_addr constant [108 x i8] c"cols > 0 && rows > 0 && anchor.inside(cv::Rect(0,0,cols,rows)) && (shape != CV_SHAPE_CUSTOM || values != 0)\00", align 1
@__func__.cvCreateStructuringElementEx = private unnamed_addr constant [29 x i8] c"cvCreateStructuringElementEx\00", align 1

; Function Attrs: mustprogress nounwind uwtable
define linkonce_odr hidden noundef zeroext i1 @_ZNK2cv5Rect_IiE8containsERKNS_6Point_IiEE(ptr noundef nonnull align 4 dereferenceable(16) %0, ptr noundef nonnull align 4 dereferenceable(8) %1) #6 comdat align 2 {
  %3 = alloca ptr, align 8
  %4 = alloca ptr, align 8
  store ptr %0, ptr %3, align 8
  store ptr %1, ptr %4, align 8
  %5 = load ptr, ptr %3, align 8
  %6 = getelementptr inbounds %"class.cv::Rect_", ptr %5, i32 0, i32 0
  %7 = load i32, ptr %6, align 4
  %8 = load ptr, ptr %4, align 8
  %9 = getelementptr inbounds %"class.cv::Point_", ptr %8, i32 0, i32 0
  %10 = load i32, ptr %9, align 4
  %11 = icmp sle i32 %7, %10
  br i1 %11, label %12, label %39

12:                                               ; preds = %2
  %13 = load ptr, ptr %4, align 8
  %14 = getelementptr inbounds %"class.cv::Point_", ptr %13, i32 0, i32 0
  %15 = load i32, ptr %14, align 4
  %16 = getelementptr inbounds %"class.cv::Rect_", ptr %5, i32 0, i32 0
  %17 = load i32, ptr %16, align 4
  %18 = getelementptr inbounds %"class.cv::Rect_", ptr %5, i32 0, i32 2
  %19 = load i32, ptr %18, align 4
  %20 = add nsw i32 %17, %19
  %21 = icmp slt i32 %15, %20
  br i1 %21, label %22, label %39

22:                                               ; preds = %12
  %23 = getelementptr inbounds %"class.cv::Rect_", ptr %5, i32 0, i32 1
  %24 = load i32, ptr %23, align 4
  %25 = load ptr, ptr %4, align 8
  %26 = getelementptr inbounds %"class.cv::Point_", ptr %25, i32 0, i32 1
  %27 = load i32, ptr %26, align 4
  %28 = icmp sle i32 %24, %27
  br i1 %28, label %29, label %39

29:                                               ; preds = %22
  %30 = load ptr, ptr %4, align 8
  %31 = getelementptr inbounds %"class.cv::Point_", ptr %30, i32 0, i32 1
  %32 = load i32, ptr %31, align 4
  %33 = getelementptr inbounds %"class.cv::Rect_", ptr %5, i32 0, i32 1
  %34 = load i32, ptr %33, align 4
  %35 = getelementptr inbounds %"class.cv::Rect_", ptr %5, i32 0, i32 3
  %36 = load i32, ptr %35, align 4
  %37 = add nsw i32 %34, %36
  %38 = icmp slt i32 %32, %37
  br label %39

39:                                               ; preds = %29, %22, %12, %2
  %40 = phi i1 [ false, %22 ], [ false, %12 ], [ false, %2 ], [ %38, %29 ]
  ret i1 %40
}

; Function Attrs: mustprogress nounwind uwtable
define linkonce_odr hidden noundef ptr @_ZN2cv3Mat3ptrEi(ptr noundef nonnull align 8 dereferenceable(96) %0, i32 noundef %1) #6 comdat align 2 {
  %3 = alloca ptr, align 8
  %4 = alloca i32, align 4
  store ptr %0, ptr %3, align 8
  store i32 %1, ptr %4, align 4
  %5 = load ptr, ptr %3, align 8
  %6 = getelementptr inbounds %"class.cv::Mat", ptr %5, i32 0, i32 4
  %7 = load ptr, ptr %6, align 8
  %8 = getelementptr inbounds %"class.cv::Mat", ptr %5, i32 0, i32 11
  %9 = getelementptr inbounds %"struct.cv::MatStep", ptr %8, i32 0, i32 0
  %10 = load ptr, ptr %9, align 8
  %11 = getelementptr inbounds i64, ptr %10, i64 0
  %12 = load i64, ptr %11, align 8
  %13 = load i32, ptr %4, align 4
  %14 = sext i32 %13 to i64
  %15 = mul i64 %12, %14
  %16 = getelementptr inbounds i8, ptr %7, i64 %15
  ret ptr %16
}

; Function Attrs: mustprogress uwtable
define linkonce_odr hidden noundef zeroext i1 @_ZNK2cv6Point_IiE6insideERKNS_5Rect_IiEE(ptr noundef nonnull align 4 dereferenceable(8) %0, ptr noundef nonnull align 4 dereferenceable(16) %1) #4 comdat align 2 {
  %3 = alloca ptr, align 8
  %4 = alloca ptr, align 8
  store ptr %0, ptr %3, align 8
  store ptr %1, ptr %4, align 8
  %5 = load ptr, ptr %3, align 8
  %6 = load ptr, ptr %4, align 8
  %7 = call noundef zeroext i1 @_ZNK2cv5Rect_IiE8containsERKNS_6Point_IiEE(ptr noundef nonnull align 4 dereferenceable(16) %6, ptr noundef nonnull align 4 dereferenceable(8) %5)
  ret i1 %7
}

; Function Attrs: mustprogress nounwind uwtable
define linkonce_odr hidden void @_ZN2cv5Rect_IiEC2Eiiii(ptr noundef nonnull align 4 dereferenceable(16) %0, i32 noundef %1, i32 noundef %2, i32 noundef %3, i32 noundef %4) unnamed_addr #6 comdat align 2 {
  %6 = alloca ptr, align 8
  %7 = alloca i32, align 4
  %8 = alloca i32, align 4
  %9 = alloca i32, align 4
  %10 = alloca i32, align 4
  store ptr %0, ptr %6, align 8
  store i32 %1, ptr %7, align 4
  store i32 %2, ptr %8, align 4
  store i32 %3, ptr %9, align 4
  store i32 %4, ptr %10, align 4
  %11 = load ptr, ptr %6, align 8
  %12 = getelementptr inbounds %"class.cv::Rect_", ptr %11, i32 0, i32 0
  %13 = load i32, ptr %7, align 4
  store i32 %13, ptr %12, align 4
  %14 = getelementptr inbounds %"class.cv::Rect_", ptr %11, i32 0, i32 1
  %15 = load i32, ptr %8, align 4
  store i32 %15, ptr %14, align 4
  %16 = getelementptr inbounds %"class.cv::Rect_", ptr %11, i32 0, i32 2
  %17 = load i32, ptr %9, align 4
  store i32 %17, ptr %16, align 4
  %18 = getelementptr inbounds %"class.cv::Rect_", ptr %11, i32 0, i32 3
  %19 = load i32, ptr %10, align 4
  store i32 %19, ptr %18, align 4
  ret void
}

; Function Attrs: mustprogress nounwind uwtable
define linkonce_odr hidden void @_ZN2cv6Point_IiEC2Eii(ptr noundef nonnull align 4 dereferenceable(8) %0, i32 noundef %1, i32 noundef %2) unnamed_addr #6 comdat align 2 {
  %4 = alloca ptr, align 8
  %5 = alloca i32, align 4
  %6 = alloca i32, align 4
  store ptr %0, ptr %4, align 8
  store i32 %1, ptr %5, align 4
  store i32 %2, ptr %6, align 4
  %7 = load ptr, ptr %4, align 8
  %8 = getelementptr inbounds %"class.cv::Point_", ptr %7, i32 0, i32 0
  %9 = load i32, ptr %5, align 4
  store i32 %9, ptr %8, align 4
  %10 = getelementptr inbounds %"class.cv::Point_", ptr %7, i32 0, i32 1
  %11 = load i32, ptr %6, align 4
  store i32 %11, ptr %10, align 4
  ret void
}

; Function Attrs: mustprogress nounwind uwtable
define linkonce_odr hidden void @_ZN2cv5Size_IiEC2Eii(ptr noundef nonnull align 4 dereferenceable(8) %0, i32 noundef %1, i32 noundef %2) unnamed_addr #6 comdat align 2 {
  %4 = alloca ptr, align 8
  %5 = alloca i32, align 4
  %6 = alloca i32, align 4
  store ptr %0, ptr %4, align 8
  store i32 %1, ptr %5, align 4
  store i32 %2, ptr %6, align 4
  %7 = load ptr, ptr %4, align 8
  %8 = getelementptr inbounds %"class.cv::Size_", ptr %7, i32 0, i32 0
  %9 = load i32, ptr %5, align 4
  store i32 %9, ptr %8, align 4
  %10 = getelementptr inbounds %"class.cv::Size_", ptr %7, i32 0, i32 1
  %11 = load i32, ptr %6, align 4
  store i32 %11, ptr %10, align 4
  ret void
}

; Function Attrs: mustprogress uwtable
define ptr @cvCreateStructuringElementEx(i32 noundef %0, i32 noundef %1, i32 noundef %2, i32 noundef %3, i32 noundef %4, ptr noundef %5) #4 personality ptr @__gxx_personality_v0 {
  %7 = alloca i32, align 4
  %8 = alloca i32, align 4
  %9 = alloca i32, align 4
  %10 = alloca i32, align 4
  %11 = alloca i32, align 4
  %12 = alloca ptr, align 8
  %13 = alloca %"class.cv::Size_", align 4
  %14 = alloca %"class.cv::Point_", align 4
  %15 = alloca %"class.cv::Rect_", align 4
  %16 = alloca %"class.std::__cxx11::basic_string", align 8
  %17 = alloca %"class.std::allocator", align 1
  %18 = alloca ptr, align 8
  %19 = alloca i32, align 4
  %20 = alloca i32, align 4
  %21 = alloca i32, align 4
  %22 = alloca i32, align 4
  %23 = alloca ptr, align 8
  %24 = alloca %"class.cv::Mat", align 8
  %25 = alloca %"class.cv::Size_", align 4
  %26 = alloca %"class.cv::Point_", align 4
  store i32 %0, ptr %7, align 4
  store i32 %1, ptr %8, align 4
  store i32 %2, ptr %9, align 4
  store i32 %3, ptr %10, align 4
  store i32 %4, ptr %11, align 4
  store ptr %5, ptr %12, align 8
  %27 = load i32, ptr %7, align 4
  %28 = load i32, ptr %8, align 4
  call void @_ZN2cv5Size_IiEC2Eii(ptr noundef nonnull align 4 dereferenceable(8) %13, i32 noundef %27, i32 noundef %28)
  %29 = load i32, ptr %9, align 4
  %30 = load i32, ptr %10, align 4
  call void @_ZN2cv6Point_IiEC2Eii(ptr noundef nonnull align 4 dereferenceable(8) %14, i32 noundef %29, i32 noundef %30)
  br label %31

31:                                               ; preds = %6
  %32 = load i32, ptr %7, align 4
  %33 = icmp sgt i32 %32, 0
  br i1 %33, label %34, label %49

34:                                               ; preds = %31
  %35 = load i32, ptr %8, align 4
  %36 = icmp sgt i32 %35, 0
  br i1 %36, label %37, label %49

37:                                               ; preds = %34
  %38 = load i32, ptr %7, align 4
  %39 = load i32, ptr %8, align 4
  call void @_ZN2cv5Rect_IiEC2Eiiii(ptr noundef nonnull align 4 dereferenceable(16) %15, i32 noundef 0, i32 noundef 0, i32 noundef %38, i32 noundef %39)
  %40 = call noundef zeroext i1 @_ZNK2cv6Point_IiE6insideERKNS_5Rect_IiEE(ptr noundef nonnull align 4 dereferenceable(8) %14, ptr noundef nonnull align 4 dereferenceable(16) %15)
  br i1 %40, label %41, label %49

41:                                               ; preds = %37
  %42 = load i32, ptr %11, align 4
  %43 = icmp ne i32 %42, 100
  br i1 %43, label %47, label %44

44:                                               ; preds = %41
  %45 = load ptr, ptr %12, align 8
  %46 = icmp ne ptr %45, null
  br label %47

47:                                               ; preds = %44, %41
  %48 = phi i1 [ true, %41 ], [ %46, %44 ]
  br label %49

49:                                               ; preds = %47, %37, %34, %31
  %50 = phi i1 [ false, %37 ], [ false, %34 ], [ false, %31 ], [ %48, %47 ]
  %51 = xor i1 %50, true
  %52 = xor i1 %51, true
  br i1 %52, label %53, label %54

53:                                               ; preds = %49
  br label %66

54:                                               ; preds = %49
  call void @_ZNSaIcEC1Ev(ptr noundef nonnull align 1 dereferenceable(1) %17) #3
  invoke void @_ZNSt7__cxx1112basic_stringIcSt11char_traitsIcESaIcEEC1EPKcRKS3_(ptr noundef nonnull align 8 dereferenceable(32) %16, ptr noundef @.str.19, ptr noundef nonnull align 1 dereferenceable(1) %17)
          to label %55 unwind label %57

55:                                               ; preds = %54
  invoke void @_ZN2cv5errorEiRKNSt7__cxx1112basic_stringIcSt11char_traitsIcESaIcEEEPKcS9_i(i32 noundef -215, ptr noundef nonnull align 8 dereferenceable(32) %16, ptr noundef @__func__.cvCreateStructuringElementEx, ptr noundef @.str.7, i32 noundef 1266) #15
          to label %56 unwind label %61

56:                                               ; preds = %55
  unreachable

57:                                               ; preds = %54
  %58 = landingpad { ptr, i32 }
          cleanup
  %59 = extractvalue { ptr, i32 } %58, 0
  store ptr %59, ptr %18, align 8
  %60 = extractvalue { ptr, i32 } %58, 1
  store i32 %60, ptr %19, align 4
  br label %65

61:                                               ; preds = %55
  %62 = landingpad { ptr, i32 }
          cleanup
  %63 = extractvalue { ptr, i32 } %62, 0
  store ptr %63, ptr %18, align 8
  %64 = extractvalue { ptr, i32 } %62, 1
  store i32 %64, ptr %19, align 4
  call void @_ZNSt7__cxx1112basic_stringIcSt11char_traitsIcESaIcEED1Ev(ptr noundef nonnull align 8 dereferenceable(32) %16) #3
  br label %65

65:                                               ; preds = %61, %57
  call void @_ZNSaIcED1Ev(ptr noundef nonnull align 1 dereferenceable(1) %17) #3
  br label %160

66:                                               ; preds = %53
  br label %67

67:                                               ; preds = %66
  %68 = load i32, ptr %8, align 4
  %69 = load i32, ptr %7, align 4
  %70 = mul nsw i32 %68, %69
  store i32 %70, ptr %21, align 4
  %71 = load i32, ptr %21, align 4
  %72 = sext i32 %71 to i64
  %73 = mul i64 %72, 4
  %74 = add i64 32, %73
  %75 = trunc i64 %74 to i32
  store i32 %75, ptr %22, align 4
  %76 = load i32, ptr %22, align 4
  %77 = add nsw i32 %76, 32
  %78 = sext i32 %77 to i64
  %79 = call ptr @cvAlloc(i64 noundef %78)
  store ptr %79, ptr %23, align 8
  %80 = load i32, ptr %7, align 4
  %81 = load ptr, ptr %23, align 8
  %82 = getelementptr inbounds %struct._IplConvKernel, ptr %81, i32 0, i32 0
  store i32 %80, ptr %82, align 8
  %83 = load i32, ptr %8, align 4
  %84 = load ptr, ptr %23, align 8
  %85 = getelementptr inbounds %struct._IplConvKernel, ptr %84, i32 0, i32 1
  store i32 %83, ptr %85, align 4
  %86 = load i32, ptr %9, align 4
  %87 = load ptr, ptr %23, align 8
  %88 = getelementptr inbounds %struct._IplConvKernel, ptr %87, i32 0, i32 2
  store i32 %86, ptr %88, align 8
  %89 = load i32, ptr %10, align 4
  %90 = load ptr, ptr %23, align 8
  %91 = getelementptr inbounds %struct._IplConvKernel, ptr %90, i32 0, i32 3
  store i32 %89, ptr %91, align 4
  %92 = load i32, ptr %11, align 4
  %93 = icmp slt i32 %92, 2
  br i1 %93, label %94, label %96

94:                                               ; preds = %67
  %95 = load i32, ptr %11, align 4
  br label %97

96:                                               ; preds = %67
  br label %97

97:                                               ; preds = %96, %94
  %98 = phi i32 [ %95, %94 ], [ 100, %96 ]
  %99 = load ptr, ptr %23, align 8
  %100 = getelementptr inbounds %struct._IplConvKernel, ptr %99, i32 0, i32 5
  store i32 %98, ptr %100, align 8
  %101 = load ptr, ptr %23, align 8
  %102 = getelementptr inbounds %struct._IplConvKernel, ptr %101, i64 1
  %103 = load ptr, ptr %23, align 8
  %104 = getelementptr inbounds %struct._IplConvKernel, ptr %103, i32 0, i32 4
  store ptr %102, ptr %104, align 8
  %105 = load i32, ptr %11, align 4
  %106 = icmp eq i32 %105, 100
  br i1 %106, label %107, label %128

107:                                              ; preds = %97
  store i32 0, ptr %20, align 4
  br label %108

108:                                              ; preds = %124, %107
  %109 = load i32, ptr %20, align 4
  %110 = load i32, ptr %21, align 4
  %111 = icmp slt i32 %109, %110
  br i1 %111, label %112, label %127

112:                                              ; preds = %108
  %113 = load ptr, ptr %12, align 8
  %114 = load i32, ptr %20, align 4
  %115 = sext i32 %114 to i64
  %116 = getelementptr inbounds i32, ptr %113, i64 %115
  %117 = load i32, ptr %116, align 4
  %118 = load ptr, ptr %23, align 8
  %119 = getelementptr inbounds %struct._IplConvKernel, ptr %118, i32 0, i32 4
  %120 = load ptr, ptr %119, align 8
  %121 = load i32, ptr %20, align 4
  %122 = sext i32 %121 to i64
  %123 = getelementptr inbounds i32, ptr %120, i64 %122
  store i32 %117, ptr %123, align 4
  br label %124

124:                                              ; preds = %112
  %125 = load i32, ptr %20, align 4
  %126 = add nsw i32 %125, 1
  store i32 %126, ptr %20, align 4
  br label %108, !llvm.loop !10

127:                                              ; preds = %108
  br label %158

128:                                              ; preds = %97
  %129 = load i32, ptr %11, align 4
  call void @llvm.memcpy.p0.p0.i64(ptr align 4 %25, ptr align 4 %13, i64 8, i1 false)
  call void @llvm.memcpy.p0.p0.i64(ptr align 4 %26, ptr align 4 %14, i64 8, i1 false)
  %130 = load i64, ptr %25, align 4
  %131 = load i64, ptr %26, align 4
  call void @_ZN2cv21getStructuringElementEiNS_5Size_IiEENS_6Point_IiEE(ptr dead_on_unwind writable sret(%"class.cv::Mat") align 8 %24, i32 noundef %129, i64 %130, i64 %131)
  store i32 0, ptr %20, align 4
  br label %132

132:                                              ; preds = %150, %128
  %133 = load i32, ptr %20, align 4
  %134 = load i32, ptr %21, align 4
  %135 = icmp slt i32 %133, %134
  br i1 %135, label %136, label %157

136:                                              ; preds = %132
  %137 = invoke noundef ptr @_ZN2cv3Mat3ptrEi(ptr noundef nonnull align 8 dereferenceable(96) %24, i32 noundef 0)
          to label %138 unwind label %153

138:                                              ; preds = %136
  %139 = load i32, ptr %20, align 4
  %140 = sext i32 %139 to i64
  %141 = getelementptr inbounds i8, ptr %137, i64 %140
  %142 = load i8, ptr %141, align 1
  %143 = zext i8 %142 to i32
  %144 = load ptr, ptr %23, align 8
  %145 = getelementptr inbounds %struct._IplConvKernel, ptr %144, i32 0, i32 4
  %146 = load ptr, ptr %145, align 8
  %147 = load i32, ptr %20, align 4
  %148 = sext i32 %147 to i64
  %149 = getelementptr inbounds i32, ptr %146, i64 %148
  store i32 %143, ptr %149, align 4
  br label %150

150:                                              ; preds = %138
  %151 = load i32, ptr %20, align 4
  %152 = add nsw i32 %151, 1
  store i32 %152, ptr %20, align 4
  br label %132, !llvm.loop !11

153:                                              ; preds = %136
  %154 = landingpad { ptr, i32 }
          cleanup
  %155 = extractvalue { ptr, i32 } %154, 0
  store ptr %155, ptr %18, align 8
  %156 = extractvalue { ptr, i32 } %154, 1
  store i32 %156, ptr %19, align 4
  call void @_ZN2cv3MatD1Ev(ptr noundef nonnull align 8 dereferenceable(96) %24) #3
  br label %160

157:                                              ; preds = %132
  call void @_ZN2cv3MatD1Ev(ptr noundef nonnull align 8 dereferenceable(96) %24) #3
  br label %158

158:                                              ; preds = %157, %127
  %159 = load ptr, ptr %23, align 8
  ret ptr %159

160:                                              ; preds = %153, %65
  %161 = load ptr, ptr %18, align 8
  %162 = load i32, ptr %19, align 4
  %163 = insertvalue { ptr, i32 } poison, ptr %161, 0
  %164 = insertvalue { ptr, i32 } %163, i32 %162, 1
  resume { ptr, i32 } %164
}