; Function Attrs: mustprogress uwtable
define noundef ptr @cvCreateStructuringElementEx(i32 noundef %0, i32 noundef %1, i32 noundef %2, i32 noundef %3, i32 noundef %4, ptr noundef readonly %5) local_unnamed_addr #3 personality ptr @__gxx_personality_v0 {
  %7 = alloca %"class.std::__cxx11::basic_string", align 8
  %8 = alloca %"class.std::allocator", align 1
  %9 = alloca %"class.cv::Mat", align 8
  %10 = icmp sgt i32 %0, 0
  %11 = icmp sgt i32 %1, 0
  %or.cond.not60.not63.not68.not74 = and i1 %10, %11
  %.not.i.i = icmp sgt i32 %2, -1
  %or.cond55.not61.not65.not71 = and i1 %or.cond.not60.not63.not68.not74, %.not.i.i
  %12 = icmp ult i32 %2, %0
  %or.cond56.not64.not70 = and i1 %12, %or.cond55.not61.not65.not71
  %.not8.i.i = icmp sgt i32 %3, -1
  %or.cond57.not69 = and i1 %.not8.i.i, %or.cond56.not64.not70
  %13 = icmp ult i32 %3, %1
  %or.cond58 = and i1 %13, %or.cond57.not69
  br i1 %or.cond58, label %14, label %.critedge

14:                                               ; preds = %6
  %15 = icmp ne i32 %4, 100
  %16 = icmp ne ptr %5, null
  %17 = or i1 %15, %16
  br i1 %17, label %25, label %.critedge

.critedge:                                        ; preds = %6, %14
  call void @_ZNSaIcEC1Ev(ptr noundef nonnull align 1 dereferenceable(1) %8) #24
  invoke void @_ZNSt7__cxx1112basic_stringIcSt11char_traitsIcESaIcEEC1EPKcRKS3_(ptr noundef nonnull align 8 dereferenceable(32) %7, ptr noundef nonnull @.str.19, ptr noundef nonnull align 1 dereferenceable(1) %8)
          to label %18 unwind label %20

18:                                               ; preds = %.critedge
  invoke void @_ZN2cv5errorEiRKNSt7__cxx1112basic_stringIcSt11char_traitsIcESaIcEEEPKcS9_i(i32 noundef -215, ptr noundef nonnull align 8 dereferenceable(32) %7, ptr noundef nonnull @__func__.cvCreateStructuringElementEx, ptr noundef nonnull @.str.7, i32 noundef 1266) #25
          to label %19 unwind label %22

19:                                               ; preds = %18
  unreachable

20:                                               ; preds = %.critedge
  %21 = landingpad { ptr, i32 }
          cleanup
  br label %24

22:                                               ; preds = %18
  %23 = landingpad { ptr, i32 }
          cleanup
  call void @_ZNSt7__cxx1112basic_stringIcSt11char_traitsIcESaIcEED1Ev(ptr noundef nonnull align 8 dereferenceable(32) %7) #24
  br label %24

24:                                               ; preds = %22, %20
  %.pn = phi { ptr, i32 } [ %23, %22 ], [ %21, %20 ]
  call void @_ZNSaIcED1Ev(ptr noundef nonnull align 1 dereferenceable(1) %8) #24
  resume { ptr, i32 } %.pn

25:                                               ; preds = %14
  %26 = mul nuw nsw i32 %1, %0
  %27 = shl i32 %26, 2
  %28 = add i32 %27, 64
  %29 = sext i32 %28 to i64
  %30 = tail call ptr @cvAlloc(i64 noundef %29)
  store i32 %0, ptr %30, align 8
  %31 = getelementptr inbounds i8, ptr %30, i64 4
  store i32 %1, ptr %31, align 4
  %32 = getelementptr inbounds i8, ptr %30, i64 8
  store i32 %2, ptr %32, align 8
  %33 = getelementptr inbounds i8, ptr %30, i64 12
  store i32 %3, ptr %33, align 4
  %34 = icmp slt i32 %4, 2
  %35 = select i1 %34, i32 %4, i32 100
  %36 = getelementptr inbounds i8, ptr %30, i64 24
  store i32 %35, ptr %36, align 8
  %37 = getelementptr inbounds i8, ptr %30, i64 32
  %38 = getelementptr inbounds i8, ptr %30, i64 16
  store ptr %37, ptr %38, align 8
  %39 = icmp eq i32 %4, 100
  br i1 %39, label %.lr.ph77.preheader, label %.lr.ph

.lr.ph77.preheader:                               ; preds = %25
  %wide.trip.count83 = zext nneg i32 %26 to i64
  br label %.lr.ph77

.lr.ph77:                                         ; preds = %.lr.ph77.preheader, %.lr.ph77
  %indvars.iv79 = phi i64 [ 0, %.lr.ph77.preheader ], [ %indvars.iv.next80, %.lr.ph77 ]
  %40 = getelementptr inbounds i32, ptr %5, i64 %indvars.iv79
  %41 = load i32, ptr %40, align 4
  %42 = load ptr, ptr %38, align 8
  %43 = getelementptr inbounds i32, ptr %42, i64 %indvars.iv79
  store i32 %41, ptr %43, align 4
  %indvars.iv.next80 = add nuw nsw i64 %indvars.iv79, 1
  %exitcond84.not = icmp eq i64 %indvars.iv.next80, %wide.trip.count83
  br i1 %exitcond84.not, label %.loopexit, label %.lr.ph77, !llvm.loop !203

.lr.ph:                                           ; preds = %25
  %.sroa.254.0.insert.ext = zext nneg i32 %1 to i64
  %.sroa.254.0.insert.shift = shl nuw nsw i64 %.sroa.254.0.insert.ext, 32
  %.sroa.053.0.insert.ext = zext nneg i32 %0 to i64
  %.sroa.053.0.insert.insert = or disjoint i64 %.sroa.254.0.insert.shift, %.sroa.053.0.insert.ext
  %.sroa.3.0.insert.ext = zext nneg i32 %3 to i64
  %.sroa.3.0.insert.shift = shl nuw nsw i64 %.sroa.3.0.insert.ext, 32
  %.sroa.052.0.insert.ext = zext nneg i32 %2 to i64
  %.sroa.052.0.insert.insert = or disjoint i64 %.sroa.3.0.insert.shift, %.sroa.052.0.insert.ext
  call void @_ZN2cv21getStructuringElementEiNS_5Size_IiEENS_6Point_IiEE(ptr dead_on_unwind nonnull writable sret(%"class.cv::Mat") align 8 %9, i32 noundef %4, i64 %.sroa.053.0.insert.insert, i64 %.sroa.052.0.insert.insert)
  %44 = getelementptr inbounds i8, ptr %9, i64 16
  %wide.trip.count = zext nneg i32 %26 to i64
  br label %45

45:                                               ; preds = %.lr.ph, %45
  %indvars.iv = phi i64 [ 0, %.lr.ph ], [ %indvars.iv.next, %45 ]
  %46 = load ptr, ptr %44, align 8
  %47 = getelementptr inbounds i8, ptr %46, i64 %indvars.iv
  %48 = load i8, ptr %47, align 1
  %49 = zext i8 %48 to i32
  %50 = load ptr, ptr %38, align 8
  %51 = getelementptr inbounds i32, ptr %50, i64 %indvars.iv
  store i32 %49, ptr %51, align 4
  %indvars.iv.next = add nuw nsw i64 %indvars.iv, 1
  %exitcond.not = icmp eq i64 %indvars.iv.next, %wide.trip.count
  br i1 %exitcond.not, label %._crit_edge, label %45, !llvm.loop !204

._crit_edge:                                      ; preds = %45
  call void @_ZN2cv3MatD1Ev(ptr noundef nonnull align 8 dereferenceable(96) %9) #24
  br label %.loopexit

.loopexit:                                        ; preds = %.lr.ph77, %._crit_edge
  ret ptr %30
}